target datalayout = "e-m:e-p270:32:32-p271:32:32-p272:64:64-i64:64-i128:128-f80:128-n8:16:32:64-S128"
target triple = "x86_64-pc-linux-gnu"

%"class.LIEF::PE::PogoEntry" = type { %"class.LIEF::Object", i32, i32, %"class.std::__cxx11::basic_string" }
%"class.LIEF::Object" = type { ptr }
%"class.std::__cxx11::basic_string" = type { %"struct.std::__cxx11::basic_string<char>::_Alloc_hider", i64, %union.anon.0 }
%"struct.std::__cxx11::basic_string<char>::_Alloc_hider" = type { ptr }
%union.anon.0 = type { i64, [8 x i8] }
%"class.fmt::v9::basic_string_view" = type { ptr, i64 }
%"class.fmt::v9::basic_format_string" = type { %"class.fmt::v9::basic_string_view" }
%"class.fmt::v9::basic_format_args" = type { i64, %union.anon.4 }
%union.anon.4 = type { ptr }
%"class.fmt::v9::format_arg_store" = type { %"struct.fmt::v9::detail::arg_data" }
%"struct.fmt::v9::detail::arg_data" = type { [3 x %"class.fmt::v9::detail::value"] }
%"class.fmt::v9::detail::value" = type { %union.anon.5 }
%union.anon.5 = type { i128 }
%"struct.fmt::v9::detail::arg_mapper" = type { i8 }
%"struct.fmt::v9::detail::string_value" = type { ptr, i64 }

@.str = private unnamed_addr constant [21 x i8] c"0x{:04x}-0x{:04x} {}\00", align 1

; Function Attrs: mustprogress nounwind uwtable
define linkonce_odr hidden void @_ZN3fmt2v917basic_string_viewIcEC2ISt11char_traitsIcESaIcEEERKNSt7__cxx1112basic_stringIcT_T0_EE(ptr noundef nonnull align 8 dereferenceable(16) %0, ptr noundef nonnull align 8 dereferenceable(32) %1) unnamed_addr #1 comdat align 2 {
  %3 = alloca ptr, align 8
  %4 = alloca ptr, align 8
  store ptr %0, ptr %3, align 8
  store ptr %1, ptr %4, align 8
  %5 = load ptr, ptr %3, align 8
  %6 = getelementptr inbounds %"class.fmt::v9::basic_string_view", ptr %5, i32 0, i32 0
  %7 = load ptr, ptr %4, align 8
  %8 = call noundef ptr @_ZNKSt7__cxx1112basic_stringIcSt11char_traitsIcESaIcEE4dataEv(ptr noundef nonnull align 8 dereferenceable(32) %7) #15
  store ptr %8, ptr %6, align 8
  %9 = getelementptr inbounds %"class.fmt::v9::basic_string_view", ptr %5, i32 0, i32 1
  %10 = load ptr, ptr %4, align 8
  %11 = call noundef i64 @_ZNKSt7__cxx1112basic_stringIcSt11char_traitsIcESaIcEE4sizeEv(ptr noundef nonnull align 8 dereferenceable(32) %10) #15
  store i64 %11, ptr %9, align 8
  ret void
}

; Function Attrs: mustprogress nounwind uwtable
define linkonce_odr hidden noundef i64 @_ZNK3fmt2v917basic_string_viewIcE4sizeEv(ptr noundef nonnull align 8 dereferenceable(16) %0) #1 comdat align 2 {
  %2 = alloca ptr, align 8
  store ptr %0, ptr %2, align 8
  %3 = load ptr, ptr %2, align 8
  %4 = getelementptr inbounds %"class.fmt::v9::basic_string_view", ptr %3, i32 0, i32 1
  %5 = load i64, ptr %4, align 8
  ret i64 %5
}

; Function Attrs: mustprogress nounwind uwtable
define linkonce_odr hidden noundef ptr @_ZNK3fmt2v917basic_string_viewIcE4dataEv(ptr noundef nonnull align 8 dereferenceable(16) %0) #1 comdat align 2 {
  %2 = alloca ptr, align 8
  store ptr %0, ptr %2, align 8
  %3 = load ptr, ptr %2, align 8
  %4 = getelementptr inbounds %"class.fmt::v9::basic_string_view", ptr %3, i32 0, i32 0
  %5 = load ptr, ptr %4, align 8
  ret ptr %5
}

; Function Attrs: mustprogress nounwind uwtable
define linkonce_odr hidden { ptr, i64 } @_ZN3fmt2v96detail14to_string_viewIcSt11char_traitsIcESaIcEEENS0_17basic_string_viewIT_EERKNSt7__cxx1112basic_stringIS7_T0_T1_EE(ptr noundef nonnull align 8 dereferenceable(32) %0) #1 comdat {
  %2 = alloca %"class.fmt::v9::basic_string_view", align 8
  %3 = alloca ptr, align 8
  store ptr %0, ptr %3, align 8
  %4 = load ptr, ptr %3, align 8
  call void @_ZN3fmt2v917basic_string_viewIcEC2ISt11char_traitsIcESaIcEEERKNSt7__cxx1112basic_stringIcT_T0_EE(ptr noundef nonnull align 8 dereferenceable(16) %2, ptr noundef nonnull align 8 dereferenceable(32) %4) #15
  %5 = load { ptr, i64 }, ptr %2, align 8
  ret { ptr, i64 } %5
}

; Function Attrs: mustprogress uwtable
define linkonce_odr hidden void @_ZN3fmt2v916make_format_argsINS0_20basic_format_contextINS0_8appenderEcEEJRjS5_RKNSt7__cxx1112basic_stringIcSt11char_traitsIcESaIcEEEEEENS0_16format_arg_storeIT_JDpNSt9remove_cvINSt16remove_referenceIT0_E4typeEE4typeEEEEDpOSI_(ptr dead_on_unwind noalias writable sret(%"class.fmt::v9::format_arg_store") align 16 %0, ptr noundef nonnull align 4 dereferenceable(4) %1, ptr noundef nonnull align 4 dereferenceable(4) %2, ptr noundef nonnull align 8 dereferenceable(32) %3) #3 comdat {
  %5 = alloca %"class.fmt::v9::basic_string_view", align 8
  %6 = alloca ptr, align 8
  %7 = alloca %"class.fmt::v9::basic_string_view", align 8
  %8 = alloca ptr, align 8
  %9 = alloca ptr, align 8
  %10 = alloca %"class.fmt::v9::detail::value", align 16
  %11 = alloca ptr, align 8
  %12 = alloca ptr, align 8
  %13 = alloca %"class.fmt::v9::basic_string_view", align 8
  %14 = alloca %"struct.fmt::v9::detail::arg_mapper", align 1
  %15 = alloca i8, align 1
  %16 = alloca i8, align 1
  %17 = alloca i8, align 1
  %18 = alloca i8, align 1
  %19 = alloca %"class.fmt::v9::basic_string_view", align 8
  %20 = alloca ptr, align 8
  %21 = alloca i32, align 4
  %22 = alloca ptr, align 8
  %23 = alloca i32, align 4
  %24 = alloca ptr, align 8
  %25 = alloca i32, align 4
  %26 = alloca ptr, align 8
  %27 = alloca i32, align 4
  %28 = alloca %"class.fmt::v9::detail::value", align 16
  %29 = alloca ptr, align 8
  %30 = alloca ptr, align 8
  %31 = alloca i32, align 4
  %32 = alloca %"struct.fmt::v9::detail::arg_mapper", align 1
  %33 = alloca i8, align 1
  %34 = alloca i8, align 1
  %35 = alloca i8, align 1
  %36 = alloca i8, align 1
  %37 = alloca %"class.fmt::v9::detail::value", align 16
  %38 = alloca ptr, align 8
  %39 = alloca ptr, align 8
  %40 = alloca i32, align 4
  %41 = alloca %"struct.fmt::v9::detail::arg_mapper", align 1
  %42 = alloca i8, align 1
  %43 = alloca i8, align 1
  %44 = alloca i8, align 1
  %45 = alloca i8, align 1
  %46 = alloca ptr, align 8
  %47 = alloca ptr, align 8
  %48 = alloca i32, align 4
  %49 = alloca i32, align 4
  %50 = alloca ptr, align 8
  %51 = alloca ptr, align 8
  %52 = alloca ptr, align 8
  %53 = alloca ptr, align 8
  %54 = alloca ptr, align 8
  %55 = alloca ptr, align 8
  %56 = alloca ptr, align 8
  %57 = alloca %"class.fmt::v9::detail::value", align 16
  %58 = alloca ptr, align 8
  %59 = alloca %"class.fmt::v9::detail::value", align 16
  %60 = alloca ptr, align 8
  %61 = alloca %"class.fmt::v9::detail::value", align 16
  %62 = alloca ptr, align 8
  %63 = alloca ptr, align 8
  %64 = alloca ptr, align 8
  %65 = alloca ptr, align 8
  %66 = alloca ptr, align 8
  %67 = alloca %"class.fmt::v9::detail::value", align 16
  %68 = alloca %"class.fmt::v9::detail::value", align 16
  %69 = alloca %"class.fmt::v9::detail::value", align 16
  %70 = alloca ptr, align 8
  %71 = alloca ptr, align 8
  %72 = alloca ptr, align 8
  store ptr %1, ptr %70, align 8
  store ptr %2, ptr %71, align 8
  store ptr %3, ptr %72, align 8
  %73 = load ptr, ptr %70, align 8
  %74 = load ptr, ptr %71, align 8
  %75 = load ptr, ptr %72, align 8
  store ptr %0, ptr %63, align 8
  store ptr %73, ptr %64, align 8
  store ptr %74, ptr %65, align 8
  store ptr %75, ptr %66, align 8
  %76 = load ptr, ptr %63, align 8
  %77 = load ptr, ptr %64, align 8
  store ptr %77, ptr %60, align 8
  %78 = load ptr, ptr %60, align 8
  store ptr %78, ptr %38, align 8
  %79 = load ptr, ptr %38, align 8
  %80 = load i32, ptr %79, align 4
  store ptr %41, ptr %24, align 8
  store i32 %80, ptr %25, align 4
  %81 = load i32, ptr %25, align 4
  store i32 %81, ptr %40, align 4
  store ptr %40, ptr %39, align 8
  store i8 1, ptr %42, align 1
  store i8 1, ptr %43, align 1
  store i8 1, ptr %44, align 1
  store i8 1, ptr %45, align 1
  %82 = load ptr, ptr %39, align 8
  %83 = load i32, ptr %82, align 4
  store ptr %37, ptr %20, align 8
  store i32 %83, ptr %21, align 4
  %84 = load ptr, ptr %20, align 8
  %85 = load i32, ptr %21, align 4
  store i32 %85, ptr %84, align 16
  %86 = load { i64, i64 }, ptr %37, align 16
  %87 = extractvalue { i64, i64 } %86, 0
  store i64 %87, ptr %59, align 16
  %88 = getelementptr inbounds { i64, i64 }, ptr %59, i32 0, i32 1
  %89 = extractvalue { i64, i64 } %86, 1
  store i64 %89, ptr %88, align 8
  %90 = load { i64, i64 }, ptr %59, align 16
  %91 = extractvalue { i64, i64 } %90, 0
  store i64 %91, ptr %67, align 16
  %92 = getelementptr inbounds { i64, i64 }, ptr %67, i32 0, i32 1
  %93 = extractvalue { i64, i64 } %90, 1
  store i64 %93, ptr %92, align 8
  %94 = load ptr, ptr %65, align 8
  store ptr %94, ptr %62, align 8
  %95 = load ptr, ptr %62, align 8
  store ptr %95, ptr %29, align 8
  %96 = load ptr, ptr %29, align 8
  %97 = load i32, ptr %96, align 4
  store ptr %32, ptr %26, align 8
  store i32 %97, ptr %27, align 4
  %98 = load i32, ptr %27, align 4
  store i32 %98, ptr %31, align 4
  store ptr %31, ptr %30, align 8
  store i8 1, ptr %33, align 1
  store i8 1, ptr %34, align 1
  store i8 1, ptr %35, align 1
  store i8 1, ptr %36, align 1
  %99 = load ptr, ptr %30, align 8
  %100 = load i32, ptr %99, align 4
  store ptr %28, ptr %22, align 8
  store i32 %100, ptr %23, align 4
  %101 = load ptr, ptr %22, align 8
  %102 = load i32, ptr %23, align 4
  store i32 %102, ptr %101, align 16
  %103 = load { i64, i64 }, ptr %28, align 16
  %104 = extractvalue { i64, i64 } %103, 0
  store i64 %104, ptr %61, align 16
  %105 = getelementptr inbounds { i64, i64 }, ptr %61, i32 0, i32 1
  %106 = extractvalue { i64, i64 } %103, 1
  store i64 %106, ptr %105, align 8
  %107 = load { i64, i64 }, ptr %61, align 16
  %108 = extractvalue { i64, i64 } %107, 0
  store i64 %108, ptr %68, align 16
  %109 = getelementptr inbounds { i64, i64 }, ptr %68, i32 0, i32 1
  %110 = extractvalue { i64, i64 } %107, 1
  store i64 %110, ptr %109, align 8
  %111 = load ptr, ptr %66, align 8
  store ptr %111, ptr %58, align 8
  %112 = load ptr, ptr %58, align 8
  store ptr %112, ptr %11, align 8
  %113 = load ptr, ptr %11, align 8
  store ptr %14, ptr %8, align 8
  store ptr %113, ptr %9, align 8
  %114 = load ptr, ptr %9, align 8
  %115 = call { ptr, i64 } @_ZN3fmt2v96detail14to_string_viewIcSt11char_traitsIcESaIcEEENS0_17basic_string_viewIT_EERKNSt7__cxx1112basic_stringIS7_T0_T1_EE(ptr noundef nonnull align 8 dereferenceable(32) %114)
  %116 = extractvalue { ptr, i64 } %115, 0
  store ptr %116, ptr %7, align 8
  %117 = getelementptr inbounds { ptr, i64 }, ptr %7, i32 0, i32 1
  %118 = extractvalue { ptr, i64 } %115, 1
  store i64 %118, ptr %117, align 8
  %119 = load { ptr, i64 }, ptr %7, align 8
  %120 = extractvalue { ptr, i64 } %119, 0
  store ptr %120, ptr %13, align 8
  %121 = getelementptr inbounds { ptr, i64 }, ptr %13, i32 0, i32 1
  %122 = extractvalue { ptr, i64 } %119, 1
  store i64 %122, ptr %121, align 8
  store ptr %13, ptr %12, align 8
  store i8 1, ptr %15, align 1
  store i8 1, ptr %16, align 1
  store i8 1, ptr %17, align 1
  store i8 1, ptr %18, align 1
  %123 = load ptr, ptr %12, align 8
  call void @llvm.memcpy.p0.p0.i64(ptr align 8 %19, ptr align 8 %123, i64 16, i1 false)
  %124 = load ptr, ptr %19, align 8
  %125 = getelementptr inbounds { ptr, i64 }, ptr %19, i32 0, i32 1
  %126 = load i64, ptr %125, align 8
  store ptr %124, ptr %5, align 8
  %127 = getelementptr inbounds { ptr, i64 }, ptr %5, i32 0, i32 1
  store i64 %126, ptr %127, align 8
  store ptr %10, ptr %6, align 8
  %128 = load ptr, ptr %6, align 8
  %129 = call noundef ptr @_ZNK3fmt2v917basic_string_viewIcE4dataEv(ptr noundef nonnull align 8 dereferenceable(16) %5) #15
  store ptr %129, ptr %128, align 16
  %130 = call noundef i64 @_ZNK3fmt2v917basic_string_viewIcE4sizeEv(ptr noundef nonnull align 8 dereferenceable(16) %5) #15
  %131 = getelementptr inbounds %"struct.fmt::v9::detail::string_value", ptr %128, i32 0, i32 1
  store i64 %130, ptr %131, align 8
  %132 = load { i64, i64 }, ptr %10, align 16
  %133 = extractvalue { i64, i64 } %132, 0
  store i64 %133, ptr %57, align 16
  %134 = getelementptr inbounds { i64, i64 }, ptr %57, i32 0, i32 1
  %135 = extractvalue { i64, i64 } %132, 1
  store i64 %135, ptr %134, align 8
  %136 = load { i64, i64 }, ptr %57, align 16
  %137 = extractvalue { i64, i64 } %136, 0
  store i64 %137, ptr %69, align 16
  %138 = getelementptr inbounds { i64, i64 }, ptr %69, i32 0, i32 1
  %139 = extractvalue { i64, i64 } %136, 1
  store i64 %139, ptr %138, align 8
  store ptr %76, ptr %53, align 8
  store ptr %67, ptr %54, align 8
  store ptr %68, ptr %55, align 8
  store ptr %69, ptr %56, align 8
  %140 = load ptr, ptr %53, align 8
  %141 = load ptr, ptr %54, align 8
  call void @llvm.memcpy.p0.p0.i64(ptr align 16 %140, ptr align 16 %141, i64 16, i1 false)
  %142 = getelementptr inbounds %"class.fmt::v9::detail::value", ptr %140, i64 1
  %143 = load ptr, ptr %55, align 8
  call void @llvm.memcpy.p0.p0.i64(ptr align 16 %142, ptr align 16 %143, i64 16, i1 false)
  %144 = getelementptr inbounds %"class.fmt::v9::detail::value", ptr %142, i64 1
  %145 = load ptr, ptr %56, align 8
  call void @llvm.memcpy.p0.p0.i64(ptr align 16 %144, ptr align 16 %145, i64 16, i1 false)
  store ptr %76, ptr %46, align 8
  %146 = load ptr, ptr %64, align 8
  %147 = load ptr, ptr %65, align 8
  %148 = load ptr, ptr %66, align 8
  store ptr null, ptr %47, align 8
  store i32 0, ptr %48, align 4
  store i32 0, ptr %49, align 4
  store ptr %146, ptr %50, align 8
  store ptr %147, ptr %51, align 8
  store ptr %148, ptr %52, align 8
  ret void
}

; Function Attrs: mustprogress nounwind uwtable
define linkonce_odr hidden noundef nonnull align 8 dereferenceable(32) ptr @_ZNK4LIEF2PE9PogoEntry4nameB5cxx11Ev(ptr noundef nonnull align 8 dereferenceable(48) %0) #1 comdat align 2 {
  %2 = alloca ptr, align 8
  store ptr %0, ptr %2, align 8
  %3 = load ptr, ptr %2, align 8
  %4 = getelementptr inbounds %"class.LIEF::PE::PogoEntry", ptr %3, i32 0, i32 3
  ret ptr %4
}

; Function Attrs: mustprogress nounwind uwtable
define linkonce_odr hidden noundef i32 @_ZNK4LIEF2PE9PogoEntry4sizeEv(ptr noundef nonnull align 8 dereferenceable(48) %0) #1 comdat align 2 {
  %2 = alloca ptr, align 8
  store ptr %0, ptr %2, align 8
  %3 = load ptr, ptr %2, align 8
  %4 = getelementptr inbounds %"class.LIEF::PE::PogoEntry", ptr %3, i32 0, i32 2
  %5 = load i32, ptr %4, align 4
  ret i32 %5
}

; Function Attrs: mustprogress nounwind uwtable
define linkonce_odr hidden noundef i32 @_ZNK4LIEF2PE9PogoEntry9start_rvaEv(ptr noundef nonnull align 8 dereferenceable(48) %0) #1 comdat align 2 {
  %2 = alloca ptr, align 8
  store ptr %0, ptr %2, align 8
  %3 = load ptr, ptr %2, align 8
  %4 = getelementptr inbounds %"class.LIEF::PE::PogoEntry", ptr %3, i32 0, i32 1
  %5 = load i32, ptr %4, align 8
  ret i32 %5
}

; Function Attrs: mustprogress nounwind uwtable
define linkonce_odr hidden noundef i64 @_ZNSt11char_traitsIcE6lengthEPKc(ptr noundef %0) #1 comdat align 2 {
  %2 = alloca ptr, align 8
  store ptr %0, ptr %2, align 8
  %3 = load ptr, ptr %2, align 8
  %4 = call i64 @strlen(ptr noundef %3) #15
  ret i64 %4
}

; Function Attrs: mustprogress uwtable
define noundef nonnull align 8 dereferenceable(8) ptr @_ZN4LIEF2PElsERSoRKNS0_9PogoEntryE(ptr noundef nonnull align 8 dereferenceable(8) %0, ptr noundef nonnull align 8 dereferenceable(48) %1) #3 personality ptr @__gxx_personality_v0 {
  %3 = alloca ptr, align 8
  %4 = alloca ptr, align 8
  %5 = alloca i64, align 8
  %6 = alloca ptr, align 8
  %7 = alloca ptr, align 8
  %8 = alloca ptr, align 8
  %9 = alloca ptr, align 8
  %10 = alloca ptr, align 8
  %11 = alloca ptr, align 8
  %12 = alloca %"class.fmt::v9::basic_string_view", align 8
  %13 = alloca ptr, align 8
  %14 = alloca ptr, align 8
  %15 = alloca ptr, align 8
  %16 = alloca ptr, align 8
  %17 = alloca %"class.fmt::v9::basic_format_string", align 8
  %18 = alloca ptr, align 8
  %19 = alloca ptr, align 8
  %20 = alloca ptr, align 8
  %21 = alloca %"class.fmt::v9::basic_string_view", align 8
  %22 = alloca %"class.fmt::v9::basic_format_args", align 8
  %23 = alloca %"class.fmt::v9::format_arg_store", align 16
  %24 = alloca ptr, align 8
  %25 = alloca ptr, align 8
  %26 = alloca %"class.std::__cxx11::basic_string", align 8
  %27 = alloca %"class.fmt::v9::basic_format_string", align 8
  %28 = alloca i32, align 4
  %29 = alloca i32, align 4
  %30 = alloca ptr, align 8
  %31 = alloca i32, align 4
  store ptr %0, ptr %24, align 8
  store ptr %1, ptr %25, align 8
  %32 = load ptr, ptr %24, align 8
  store ptr %27, ptr %14, align 8
  store ptr @.str, ptr %15, align 8
  %33 = load ptr, ptr %14, align 8
  %34 = load ptr, ptr %15, align 8
  store ptr %33, ptr %8, align 8
  store ptr %34, ptr %9, align 8
  %35 = load ptr, ptr %8, align 8
  %36 = load ptr, ptr %9, align 8
  store ptr %36, ptr %35, align 8
  %37 = getelementptr inbounds %"class.fmt::v9::basic_string_view", ptr %35, i32 0, i32 1
  %38 = load ptr, ptr %9, align 8
  %39 = call noundef i64 @_ZNSt11char_traitsIcE6lengthEPKc(ptr noundef %38)
  store i64 %39, ptr %37, align 8
  %40 = load ptr, ptr %15, align 8
  store ptr %40, ptr %3, align 8
  %41 = load ptr, ptr %25, align 8
  %42 = call noundef i32 @_ZNK4LIEF2PE9PogoEntry9start_rvaEv(ptr noundef nonnull align 8 dereferenceable(48) %41)
  store i32 %42, ptr %28, align 4
  %43 = load ptr, ptr %25, align 8
  %44 = call noundef i32 @_ZNK4LIEF2PE9PogoEntry4sizeEv(ptr noundef nonnull align 8 dereferenceable(48) %43)
  store i32 %44, ptr %29, align 4
  %45 = load ptr, ptr %25, align 8
  %46 = call noundef nonnull align 8 dereferenceable(32) ptr @_ZNK4LIEF2PE9PogoEntry4nameB5cxx11Ev(ptr noundef nonnull align 8 dereferenceable(48) %45)
  %47 = getelementptr inbounds { ptr, i64 }, ptr %27, i32 0, i32 0
  %48 = load ptr, ptr %47, align 8
  %49 = getelementptr inbounds { ptr, i64 }, ptr %27, i32 0, i32 1
  %50 = load i64, ptr %49, align 8
  call void @llvm.experimental.noalias.scope.decl(metadata !4)
  store ptr %26, ptr %16, align 8, !noalias !4
  store ptr %48, ptr %17, align 8, !noalias !4
  %51 = getelementptr inbounds { ptr, i64 }, ptr %17, i32 0, i32 1
  store i64 %50, ptr %51, align 8, !noalias !4
  store ptr %28, ptr %18, align 8, !noalias !4
  store ptr %29, ptr %19, align 8, !noalias !4
  store ptr %46, ptr %20, align 8, !noalias !4
  store ptr %17, ptr %13, align 8
  %52 = load ptr, ptr %13, align 8
  call void @llvm.memcpy.p0.p0.i64(ptr align 8 %12, ptr align 8 %52, i64 16, i1 false)
  %53 = load { ptr, i64 }, ptr %12, align 8
  %54 = extractvalue { ptr, i64 } %53, 0
  store ptr %54, ptr %21, align 8, !noalias !4
  %55 = getelementptr inbounds { ptr, i64 }, ptr %21, i32 0, i32 1
  %56 = extractvalue { ptr, i64 } %53, 1
  store i64 %56, ptr %55, align 8, !noalias !4
  %57 = load ptr, ptr %18, align 8, !noalias !4
  %58 = load ptr, ptr %19, align 8, !noalias !4
  %59 = load ptr, ptr %20, align 8, !noalias !4
  call void @_ZN3fmt2v916make_format_argsINS0_20basic_format_contextINS0_8appenderEcEEJRjS5_RKNSt7__cxx1112basic_stringIcSt11char_traitsIcESaIcEEEEEENS0_16format_arg_storeIT_JDpNSt9remove_cvINSt16remove_referenceIT0_E4typeEE4typeEEEEDpOSI_(ptr dead_on_unwind writable sret(%"class.fmt::v9::format_arg_store") align 16 %23, ptr noundef nonnull align 4 dereferenceable(4) %57, ptr noundef nonnull align 4 dereferenceable(4) %58, ptr noundef nonnull align 8 dereferenceable(32) %59)
  store ptr %22, ptr %10, align 8
  store ptr %23, ptr %11, align 8
  %60 = load ptr, ptr %10, align 8
  %61 = load ptr, ptr %11, align 8
  store ptr %61, ptr %7, align 8
  %62 = load ptr, ptr %7, align 8
  store ptr %60, ptr %4, align 8
  store i64 3362, ptr %5, align 8
  store ptr %62, ptr %6, align 8
  %63 = load ptr, ptr %4, align 8
  %64 = load i64, ptr %5, align 8
  store i64 %64, ptr %63, align 8
  %65 = getelementptr inbounds %"class.fmt::v9::basic_format_args", ptr %63, i32 0, i32 1
  %66 = load ptr, ptr %6, align 8
  store ptr %66, ptr %65, align 8
  %67 = load ptr, ptr %21, align 8, !noalias !4
  %68 = getelementptr inbounds { ptr, i64 }, ptr %21, i32 0, i32 1
  %69 = load i64, ptr %68, align 8, !noalias !4
  %70 = load i64, ptr %22, align 8, !noalias !4
  %71 = getelementptr inbounds { i64, ptr }, ptr %22, i32 0, i32 1
  %72 = load ptr, ptr %71, align 8, !noalias !4
  call void @_ZN3fmt2v97vformatB5cxx11ENS0_17basic_string_viewIcEENS0_17basic_format_argsINS0_20basic_format_contextINS0_8appenderEcEEEE(ptr dead_on_unwind writable sret(%"class.std::__cxx11::basic_string") align 8 %26, ptr %67, i64 %69, i64 %70, ptr %72)
  %73 = invoke noundef nonnull align 8 dereferenceable(8) ptr @_ZStlsIcSt11char_traitsIcESaIcEERSt13basic_ostreamIT_T0_ES7_RKNSt7__cxx1112basic_stringIS4_S5_T1_EE(ptr noundef nonnull align 8 dereferenceable(8) %32, ptr noundef nonnull align 8 dereferenceable(32) %26)
          to label %74 unwind label %76

74:                                               ; preds = %2
  call void @_ZNSt7__cxx1112basic_stringIcSt11char_traitsIcESaIcEED1Ev(ptr noundef nonnull align 8 dereferenceable(32) %26) #15
  %75 = load ptr, ptr %24, align 8
  ret ptr %75

76:                                               ; preds = %2
  %77 = landingpad { ptr, i32 }
          cleanup
  %78 = extractvalue { ptr, i32 } %77, 0
  store ptr %78, ptr %30, align 8
  %79 = extractvalue { ptr, i32 } %77, 1
  store i32 %79, ptr %31, align 4
  call void @_ZNSt7__cxx1112basic_stringIcSt11char_traitsIcESaIcEED1Ev(ptr noundef nonnull align 8 dereferenceable(32) %26) #15
  br label %80

80:                                               ; preds = %76
  %81 = load ptr, ptr %30, align 8
  %82 = load i32, ptr %31, align 4
  %83 = insertvalue { ptr, i32 } poison, ptr %81, 0
  %84 = insertvalue { ptr, i32 } %83, i32 %82, 1
  resume { ptr, i32 } %84
}