; Function Attrs: mustprogress uwtable
define noundef nonnull align 8 dereferenceable(8) ptr @_ZN4LIEF2PElsERSoRKNS0_9PogoEntryE(ptr noundef nonnull returned align 8 dereferenceable(8) %0, ptr noundef nonnull align 8 dereferenceable(48) %1) local_unnamed_addr #3 personality ptr @__gxx_personality_v0 {
  %3 = alloca %"class.fmt::v9::format_arg_store", align 16
  %4 = alloca %"class.std::__cxx11::basic_string", align 8
  %5 = getelementptr inbounds i8, ptr %1, i64 8
  %6 = load i32, ptr %5, align 8
  %7 = getelementptr inbounds i8, ptr %1, i64 12
  %8 = load i32, ptr %7, align 4
  %9 = getelementptr inbounds i8, ptr %1, i64 16
  tail call void @llvm.experimental.noalias.scope.decl(metadata !4)
  %.sroa.064.0.insert.ext.i = zext i32 %6 to i64
  %.sroa.066.0.insert.ext.i = zext i32 %8 to i64
  %10 = tail call noundef ptr @_ZNKSt7__cxx1112basic_stringIcSt11char_traitsIcESaIcEE4dataEv(ptr noundef nonnull align 8 dereferenceable(32) %9) #19, !noalias !4
  %11 = tail call noundef i64 @_ZNKSt7__cxx1112basic_stringIcSt11char_traitsIcESaIcEE4sizeEv(ptr noundef nonnull align 8 dereferenceable(32) %9) #19, !noalias !4
  %12 = ptrtoint ptr %10 to i64
  store i64 %.sroa.064.0.insert.ext.i, ptr %3, align 16, !alias.scope !4
  %13 = getelementptr inbounds i8, ptr %3, i64 16
  store i64 %.sroa.066.0.insert.ext.i, ptr %13, align 16, !alias.scope !4
  %14 = getelementptr inbounds i8, ptr %3, i64 32
  store i64 %12, ptr %14, align 16, !alias.scope !4
  %.sroa.274.0..sroa_idx.i = getelementptr inbounds i8, ptr %3, i64 40
  store i64 %11, ptr %.sroa.274.0..sroa_idx.i, align 8, !alias.scope !4
  call void @_ZN3fmt2v97vformatB5cxx11ENS0_17basic_string_viewIcEENS0_17basic_format_argsINS0_20basic_format_contextINS0_8appenderEcEEEE(ptr dead_on_unwind nonnull writable sret(%"class.std::__cxx11::basic_string") align 8 %4, ptr nonnull @.str, i64 20, i64 3362, ptr nonnull %3)
  %15 = invoke noundef nonnull align 8 dereferenceable(8) ptr @_ZStlsIcSt11char_traitsIcESaIcEERSt13basic_ostreamIT_T0_ES7_RKNSt7__cxx1112basic_stringIS4_S5_T1_EE(ptr noundef nonnull align 8 dereferenceable(8) %0, ptr noundef nonnull align 8 dereferenceable(32) %4)
          to label %16 unwind label %17

16:                                               ; preds = %2
  call void @_ZNSt7__cxx1112basic_stringIcSt11char_traitsIcESaIcEED1Ev(ptr noundef nonnull align 8 dereferenceable(32) %4) #19
  ret ptr %0

17:                                               ; preds = %2
  %18 = landingpad { ptr, i32 }
          cleanup
  call void @_ZNSt7__cxx1112basic_stringIcSt11char_traitsIcESaIcEED1Ev(ptr noundef nonnull align 8 dereferenceable(32) %4) #19
  resume { ptr, i32 } %18
}